; Function Attrs: mustprogress nounwind uwtable
define hidden void @_ZN13SpaceCounters11update_usedEv(ptr noundef nonnull align 8 dereferenceable(40) %0) local_unnamed_addr #0 align 2 {
  %2 = getelementptr inbounds i8, ptr %0, i64 24
  %3 = load ptr, ptr %2, align 8
  %4 = load ptr, ptr %3, align 8
  %5 = getelementptr inbounds i8, ptr %4, i64 80
  %6 = load ptr, ptr %5, align 8
  %7 = tail call noundef i64 %6(ptr noundef nonnull align 8 dereferenceable(56) %3) #6
  %8 = shl i64 %7, 3
  %9 = getelementptr inbounds i8, ptr %0, i64 16
  store volatile i64 %8, ptr %9, align 8
  %10 = getelementptr inbounds i8, ptr %0, i64 8
  %11 = load ptr, ptr %10, align 8
  %12 = getelementptr inbounds i8, ptr %11, i64 40
  %13 = load ptr, ptr %12, align 8
  store i64 %8, ptr %13, align 8
  ret void
}